target datalayout = "e-m:e-p270:32:32-p271:32:32-p272:64:64-i64:64-i128:128-f80:128-n8:16:32:64-S128"
target triple = "x86_64-pc-linux-gnu"

%struct.Texture = type { i32, i32, i32, i32, i32 }
%struct.Rectangle = type { float, float, float, float }

@texShapes = internal global %struct.Texture { i32 1, i32 1, i32 1, i32 1, i32 7 }, align 4
@texShapesRec = internal global %struct.Rectangle { float 0.000000e+00, float 0.000000e+00, float 1.000000e+00, float 1.000000e+00 }, align 4

; Function Attrs: nounwind uwtable
define void @SetShapesTexture(ptr noundef byval(%struct.Texture) align 8 %0, <2 x float> %1, <2 x float> %2) #0 {
  %4 = alloca %struct.Rectangle, align 4
  %5 = alloca %struct.Texture, align 4
  %6 = alloca %struct.Rectangle, align 4
  %7 = getelementptr inbounds nuw { <2 x float>, <2 x float> }, ptr %4, i32 0, i32 0
  store <2 x float> %1, ptr %7, align 4
  %8 = getelementptr inbounds nuw { <2 x float>, <2 x float> }, ptr %4, i32 0, i32 1
  store <2 x float> %2, ptr %8, align 4
  %9 = getelementptr inbounds nuw %struct.Texture, ptr %0, i32 0, i32 0
  %10 = load i32, ptr %9, align 8
  %11 = icmp eq i32 %10, 0
  br i1 %11, label %20, label %12

12:                                               ; preds = %3
  %13 = getelementptr inbounds nuw %struct.Rectangle, ptr %4, i32 0, i32 2
  %14 = load float, ptr %13, align 4
  %15 = fcmp oeq float %14, 0.000000e+00
  br i1 %15, label %20, label %16

16:                                               ; preds = %12
  %17 = getelementptr inbounds nuw %struct.Rectangle, ptr %4, i32 0, i32 3
  %18 = load float, ptr %17, align 4
  %19 = fcmp oeq float %18, 0.000000e+00
  br i1 %19, label %20, label %30

20:                                               ; preds = %16, %12, %3
  %21 = getelementptr inbounds nuw %struct.Texture, ptr %5, i32 0, i32 0
  store i32 1, ptr %21, align 4
  %22 = getelementptr inbounds nuw %struct.Texture, ptr %5, i32 0, i32 1
  store i32 1, ptr %22, align 4
  %23 = getelementptr inbounds nuw %struct.Texture, ptr %5, i32 0, i32 2
  store i32 1, ptr %23, align 4
  %24 = getelementptr inbounds nuw %struct.Texture, ptr %5, i32 0, i32 3
  store i32 1, ptr %24, align 4
  %25 = getelementptr inbounds nuw %struct.Texture, ptr %5, i32 0, i32 4
  store i32 7, ptr %25, align 4
  call void @llvm.memcpy.p0.p0.i64(ptr align 4 @texShapes, ptr align 4 %5, i64 20, i1 false)
  %26 = getelementptr inbounds nuw %struct.Rectangle, ptr %6, i32 0, i32 0
  store float 0.000000e+00, ptr %26, align 4
  %27 = getelementptr inbounds nuw %struct.Rectangle, ptr %6, i32 0, i32 1
  store float 0.000000e+00, ptr %27, align 4
  %28 = getelementptr inbounds nuw %struct.Rectangle, ptr %6, i32 0, i32 2
  store float 1.000000e+00, ptr %28, align 4
  %29 = getelementptr inbounds nuw %struct.Rectangle, ptr %6, i32 0, i32 3
  store float 1.000000e+00, ptr %29, align 4
  call void @llvm.memcpy.p0.p0.i64(ptr align 4 @texShapesRec, ptr align 4 %6, i64 16, i1 false)
  br label %31

30:                                               ; preds = %16
  call void @llvm.memcpy.p0.p0.i64(ptr align 4 @texShapes, ptr align 8 %0, i64 20, i1 false)
  call void @llvm.memcpy.p0.p0.i64(ptr align 4 @texShapesRec, ptr align 4 %4, i64 16, i1 false)
  br label %31

31:                                               ; preds = %30, %20
  ret void
}