; Function Attrs: mustprogress nofree norecurse nosync nounwind willreturn memory(readwrite, inaccessiblemem: none) uwtable
define void @SetShapesTexture(ptr noundef readonly byval(%struct.Texture) align 8 captures(none) %0, <2 x float> %1, <2 x float> %2) local_unnamed_addr #0 {
  %4 = load i32, ptr %0, align 8
  %5 = icmp eq i32 %4, 0
  %.sroa.211.8.vec.extract = extractelement <2 x float> %2, i64 0
  %6 = fcmp oeq float %.sroa.211.8.vec.extract, 0.000000e+00
  %or.cond = select i1 %5, i1 true, i1 %6
  %.sroa.211.12.vec.extract = extractelement <2 x float> %2, i64 1
  %7 = fcmp oeq float %.sroa.211.12.vec.extract, 0.000000e+00
  %or.cond5 = select i1 %or.cond, i1 true, i1 %7
  br i1 %or.cond5, label %8, label %9

8:                                                ; preds = %3
  store i32 1, ptr @texShapes, align 4
  store i32 1, ptr getelementptr inbounds nuw (i8, ptr @texShapes, i64 4), align 4
  store i32 1, ptr getelementptr inbounds nuw (i8, ptr @texShapes, i64 8), align 4
  store i32 1, ptr getelementptr inbounds nuw (i8, ptr @texShapes, i64 12), align 4
  store i32 7, ptr getelementptr inbounds nuw (i8, ptr @texShapes, i64 16), align 4
  store float 0.000000e+00, ptr @texShapesRec, align 8
  store float 0.000000e+00, ptr getelementptr inbounds nuw (i8, ptr @texShapesRec, i64 4), align 4
  store float 1.000000e+00, ptr getelementptr inbounds nuw (i8, ptr @texShapesRec, i64 8), align 8
  store float 1.000000e+00, ptr getelementptr inbounds nuw (i8, ptr @texShapesRec, i64 12), align 4
  br label %10

9:                                                ; preds = %3
  call void @llvm.memcpy.p0.p0.i64(ptr noundef nonnull align 4 dereferenceable(20) @texShapes, ptr noundef nonnull align 8 dereferenceable(20) %0, i64 20, i1 false)
  store <2 x float> %1, ptr @texShapesRec, align 8
  store <2 x float> %2, ptr getelementptr inbounds nuw (i8, ptr @texShapesRec, i64 8), align 8
  br label %10

10:                                               ; preds = %9, %8
  ret void
}